target datalayout = "e-m:e-p270:32:32-p271:32:32-p272:64:64-i64:64-i128:128-f80:128-n8:16:32:64-S128"
target triple = "x86_64-pc-linux-gnu"

@H5_init_g = external global i8, align 1
@H5_libterm_g = external global i8, align 1

; Function Attrs: nounwind uwtable
define i32 @H5_checksum_fletcher32(ptr noundef %0, i64 noundef %1) #0 {
  %3 = alloca ptr, align 8
  %4 = alloca i64, align 8
  %5 = alloca ptr, align 8
  %6 = alloca i64, align 8
  %7 = alloca i32, align 4
  %8 = alloca i32, align 4
  %9 = alloca i64, align 8
  store ptr %0, ptr %3, align 8, !tbaa !3
  store i64 %1, ptr %4, align 8, !tbaa !7
  call void @llvm.lifetime.start.p0(i64 8, ptr %5) #3
  %10 = load ptr, ptr %3, align 8, !tbaa !3
  store ptr %10, ptr %5, align 8, !tbaa !9
  call void @llvm.lifetime.start.p0(i64 8, ptr %6) #3
  %11 = load i64, ptr %4, align 8, !tbaa !7
  %12 = udiv i64 %11, 2
  store i64 %12, ptr %6, align 8, !tbaa !7
  call void @llvm.lifetime.start.p0(i64 4, ptr %7) #3
  store i32 0, ptr %7, align 4, !tbaa !11
  call void @llvm.lifetime.start.p0(i64 4, ptr %8) #3
  store i32 0, ptr %8, align 4, !tbaa !11
  %13 = load i8, ptr @H5_init_g, align 1, !tbaa !13, !range !15, !noundef !16
  %14 = trunc i8 %13 to i1
  br i1 %14, label %19, label %15

15:                                               ; preds = %2
  %16 = load i8, ptr @H5_libterm_g, align 1, !tbaa !13, !range !15, !noundef !16
  %17 = trunc i8 %16 to i1
  %18 = xor i1 %17, true
  br label %19

19:                                               ; preds = %15, %2
  %20 = phi i1 [ true, %2 ], [ %18, %15 ]
  %21 = xor i1 %20, true
  %22 = xor i1 %21, true
  %23 = zext i1 %22 to i32
  %24 = sext i32 %23 to i64
  %25 = call i64 @llvm.expect.i64(i64 %24, i64 1)
  %26 = icmp ne i64 %25, 0
  br i1 %26, label %27, label %113

27:                                               ; preds = %19
  br label %28

28:                                               ; preds = %66, %27
  %29 = load i64, ptr %6, align 8, !tbaa !7
  %30 = icmp ne i64 %29, 0
  br i1 %30, label %31, label %77

31:                                               ; preds = %28
  call void @llvm.lifetime.start.p0(i64 8, ptr %9) #3
  %32 = load i64, ptr %6, align 8, !tbaa !7
  %33 = icmp ugt i64 %32, 360
  br i1 %33, label %34, label %35

34:                                               ; preds = %31
  br label %37

35:                                               ; preds = %31
  %36 = load i64, ptr %6, align 8, !tbaa !7
  br label %37

37:                                               ; preds = %35, %34
  %38 = phi i64 [ 360, %34 ], [ %36, %35 ]
  store i64 %38, ptr %9, align 8, !tbaa !7
  %39 = load i64, ptr %9, align 8, !tbaa !7
  %40 = load i64, ptr %6, align 8, !tbaa !7
  %41 = sub i64 %40, %39
  store i64 %41, ptr %6, align 8, !tbaa !7
  br label %42

42:                                               ; preds = %62, %37
  %43 = load ptr, ptr %5, align 8, !tbaa !9
  %44 = getelementptr inbounds i8, ptr %43, i64 0
  %45 = load i8, ptr %44, align 1, !tbaa !17
  %46 = zext i8 %45 to i16
  %47 = zext i16 %46 to i32
  %48 = shl i32 %47, 8
  %49 = load ptr, ptr %5, align 8, !tbaa !9
  %50 = getelementptr inbounds i8, ptr %49, i64 1
  %51 = load i8, ptr %50, align 1, !tbaa !17
  %52 = zext i8 %51 to i16
  %53 = zext i16 %52 to i32
  %54 = or i32 %48, %53
  %55 = load i32, ptr %7, align 4, !tbaa !11
  %56 = add i32 %55, %54
  store i32 %56, ptr %7, align 4, !tbaa !11
  %57 = load ptr, ptr %5, align 8, !tbaa !9
  %58 = getelementptr inbounds i8, ptr %57, i64 2
  store ptr %58, ptr %5, align 8, !tbaa !9
  %59 = load i32, ptr %7, align 4, !tbaa !11
  %60 = load i32, ptr %8, align 4, !tbaa !11
  %61 = add i32 %60, %59
  store i32 %61, ptr %8, align 4, !tbaa !11
  br label %62

62:                                               ; preds = %42
  %63 = load i64, ptr %9, align 8, !tbaa !7
  %64 = add i64 %63, -1
  store i64 %64, ptr %9, align 8, !tbaa !7
  %65 = icmp ne i64 %64, 0
  br i1 %65, label %42, label %66, !llvm.loop !18

66:                                               ; preds = %62
  %67 = load i32, ptr %7, align 4, !tbaa !11
  %68 = and i32 %67, 65535
  %69 = load i32, ptr %7, align 4, !tbaa !11
  %70 = lshr i32 %69, 16
  %71 = add i32 %68, %70
  store i32 %71, ptr %7, align 4, !tbaa !11
  %72 = load i32, ptr %8, align 4, !tbaa !11
  %73 = and i32 %72, 65535
  %74 = load i32, ptr %8, align 4, !tbaa !11
  %75 = lshr i32 %74, 16
  %76 = add i32 %73, %75
  store i32 %76, ptr %8, align 4, !tbaa !11
  call void @llvm.lifetime.end.p0(i64 8, ptr %9) #3
  br label %28, !llvm.loop !20

77:                                               ; preds = %28
  %78 = load i64, ptr %4, align 8, !tbaa !7
  %79 = urem i64 %78, 2
  %80 = icmp ne i64 %79, 0
  br i1 %80, label %81, label %102

81:                                               ; preds = %77
  %82 = load ptr, ptr %5, align 8, !tbaa !9
  %83 = load i8, ptr %82, align 1, !tbaa !17
  %84 = zext i8 %83 to i16
  %85 = zext i16 %84 to i32
  %86 = shl i32 %85, 8
  %87 = load i32, ptr %7, align 4, !tbaa !11
  %88 = add i32 %87, %86
  store i32 %88, ptr %7, align 4, !tbaa !11
  %89 = load i32, ptr %7, align 4, !tbaa !11
  %90 = load i32, ptr %8, align 4, !tbaa !11
  %91 = add i32 %90, %89
  store i32 %91, ptr %8, align 4, !tbaa !11
  %92 = load i32, ptr %7, align 4, !tbaa !11
  %93 = and i32 %92, 65535
  %94 = load i32, ptr %7, align 4, !tbaa !11
  %95 = lshr i32 %94, 16
  %96 = add i32 %93, %95
  store i32 %96, ptr %7, align 4, !tbaa !11
  %97 = load i32, ptr %8, align 4, !tbaa !11
  %98 = and i32 %97, 65535
  %99 = load i32, ptr %8, align 4, !tbaa !11
  %100 = lshr i32 %99, 16
  %101 = add i32 %98, %100
  store i32 %101, ptr %8, align 4, !tbaa !11
  br label %102

102:                                              ; preds = %81, %77
  %103 = load i32, ptr %7, align 4, !tbaa !11
  %104 = and i32 %103, 65535
  %105 = load i32, ptr %7, align 4, !tbaa !11
  %106 = lshr i32 %105, 16
  %107 = add i32 %104, %106
  store i32 %107, ptr %7, align 4, !tbaa !11
  %108 = load i32, ptr %8, align 4, !tbaa !11
  %109 = and i32 %108, 65535
  %110 = load i32, ptr %8, align 4, !tbaa !11
  %111 = lshr i32 %110, 16
  %112 = add i32 %109, %111
  store i32 %112, ptr %8, align 4, !tbaa !11
  br label %113

113:                                              ; preds = %102, %19
  %114 = load i32, ptr %8, align 4, !tbaa !11
  %115 = shl i32 %114, 16
  %116 = load i32, ptr %7, align 4, !tbaa !11
  %117 = or i32 %115, %116
  call void @llvm.lifetime.end.p0(i64 4, ptr %8) #3
  call void @llvm.lifetime.end.p0(i64 4, ptr %7) #3
  call void @llvm.lifetime.end.p0(i64 8, ptr %6) #3
  call void @llvm.lifetime.end.p0(i64 8, ptr %5) #3
  ret i32 %117
}