; Function Attrs: nofree norecurse nosync nounwind memory(read, inaccessiblemem: none) uwtable
define i32 @H5_checksum_fletcher32(ptr noundef readonly captures(none) %0, i64 noundef %1) local_unnamed_addr #0 {
  %3 = load i8, ptr @H5_init_g, align 1, !tbaa !3, !range !7, !noundef !8
  %4 = trunc nuw i8 %3 to i1
  %5 = load i8, ptr @H5_libterm_g, align 1, !range !7
  %6 = trunc nuw i8 %5 to i1
  %7 = xor i1 %6, true
  %8 = select i1 %4, i1 true, i1 %7
  br i1 %8, label %.preheader, label %52, !prof !9

.preheader:                                       ; preds = %2
  %.not44 = icmp ult i64 %1, 2
  br i1 %.not44, label %._crit_edge, label %.lr.ph.preheader

.lr.ph.preheader:                                 ; preds = %.preheader
  %9 = lshr i64 %1, 1
  br label %.lr.ph

.lr.ph:                                           ; preds = %.lr.ph.preheader, %24
  %.148 = phi i32 [ %31, %24 ], [ 0, %.lr.ph.preheader ]
  %.13447 = phi i32 [ %28, %24 ], [ 0, %.lr.ph.preheader ]
  %.03746 = phi i64 [ %25, %24 ], [ %9, %.lr.ph.preheader ]
  %.03845 = phi ptr [ %scevgep, %24 ], [ %0, %.lr.ph.preheader ]
  %10 = tail call i64 @llvm.umin.i64(i64 %.03746, i64 360)
  %11 = shl nuw nsw i64 %10, 1
  br label %12

12:                                               ; preds = %12, %.lr.ph
  %.139 = phi ptr [ %.03845, %.lr.ph ], [ %21, %12 ]
  %.235 = phi i32 [ %.13447, %.lr.ph ], [ %20, %12 ]
  %.2 = phi i32 [ %.148, %.lr.ph ], [ %22, %12 ]
  %.0 = phi i64 [ %10, %.lr.ph ], [ %23, %12 ]
  %13 = load i8, ptr %.139, align 1, !tbaa !10
  %14 = zext i8 %13 to i32
  %15 = shl nuw nsw i32 %14, 8
  %16 = getelementptr inbounds nuw i8, ptr %.139, i64 1
  %17 = load i8, ptr %16, align 1, !tbaa !10
  %18 = zext i8 %17 to i32
  %19 = or disjoint i32 %15, %18
  %20 = add i32 %19, %.235
  %21 = getelementptr inbounds nuw i8, ptr %.139, i64 2
  %22 = add i32 %20, %.2
  %23 = add i64 %.0, -1
  %.not41 = icmp eq i64 %23, 0
  br i1 %.not41, label %24, label %12, !llvm.loop !11

24:                                               ; preds = %12
  %25 = sub i64 %.03746, %10
  %scevgep = getelementptr i8, ptr %.03845, i64 %11
  %26 = and i32 %20, 65535
  %27 = lshr i32 %20, 16
  %28 = add nuw nsw i32 %26, %27
  %29 = and i32 %22, 65535
  %30 = lshr i32 %22, 16
  %31 = add nuw nsw i32 %29, %30
  %.not = icmp eq i64 %25, 0
  br i1 %.not, label %._crit_edge, label %.lr.ph, !llvm.loop !13

._crit_edge:                                      ; preds = %24, %.preheader
  %.038.lcssa = phi ptr [ %0, %.preheader ], [ %scevgep, %24 ]
  %.134.lcssa = phi i32 [ 0, %.preheader ], [ %28, %24 ]
  %.1.lcssa = phi i32 [ 0, %.preheader ], [ %31, %24 ]
  %32 = and i64 %1, 1
  %.not40 = icmp eq i64 %32, 0
  br i1 %.not40, label %45, label %33

33:                                               ; preds = %._crit_edge
  %34 = load i8, ptr %.038.lcssa, align 1, !tbaa !10
  %35 = zext i8 %34 to i32
  %36 = shl nuw nsw i32 %35, 8
  %37 = add nuw nsw i32 %36, %.134.lcssa
  %38 = add nuw nsw i32 %37, %.1.lcssa
  %39 = and i32 %37, 65535
  %40 = lshr i32 %37, 16
  %41 = add nuw nsw i32 %39, %40
  %42 = and i32 %38, 65535
  %43 = lshr i32 %38, 16
  %44 = add nuw nsw i32 %42, %43
  br label %45

45:                                               ; preds = %33, %._crit_edge
  %.336 = phi i32 [ %41, %33 ], [ %.134.lcssa, %._crit_edge ]
  %.3 = phi i32 [ %44, %33 ], [ %.1.lcssa, %._crit_edge ]
  %46 = and i32 %.336, 65535
  %47 = lshr i32 %.336, 16
  %48 = add nuw nsw i32 %46, %47
  %49 = mul i32 %.3, 65537
  %50 = and i32 %49, -65536
  %51 = or i32 %50, %48
  br label %52

52:                                               ; preds = %45, %2
  %53 = phi i32 [ %51, %45 ], [ 0, %2 ]
  ret i32 %53
}